; ModuleID = '54/419.c'
source_filename = "54/419.c"
target datalayout = "e-m:e-p270:32:32-p271:32:32-p272:64:64-i64:64-f80:128-n8:16:32:64-S128"
target triple = "x86_64-pc-linux-gnu"

@.str = private unnamed_addr constant [5 x i8] c"%d%d\00", align 1
@.str.1 = private unnamed_addr constant [4 x i8] c"%d\0A\00", align 1

; Function Attrs: noinline nounwind uwtable
define dso_local i32 @main() #0 {
  %1 = alloca i32, align 4
  %2 = alloca i32, align 4
  %3 = alloca i32, align 4
  %4 = alloca i32, align 4
  %5 = alloca i32, align 4
  %6 = alloca i32, align 4
  %7 = alloca i32, align 4
  %8 = alloca i32, align 4
  store i32 0, i32* %1, align 4
  store i32 1, i32* %7, align 4
  %9 = call i32 (i8*, ...) @__isoc99_scanf(i8* getelementptr inbounds ([5 x i8], [5 x i8]* @.str, i64 0, i64 0), i32* %3, i32* %4)
  store i32 1, i32* %5, align 4
  br label %10

10:                                               ; preds = %54, %0
  %11 = load i32, i32* %7, align 4
  %12 = load i32, i32* %3, align 4
  %13 = icmp slt i32 %11, %12
  br i1 %13, label %14, label %57

14:                                               ; preds = %10
  %15 = load i32, i32* %5, align 4
  store i32 %15, i32* %6, align 4
  %16 = load i32, i32* %6, align 4
  %17 = load i32, i32* %3, align 4
  %18 = mul nsw i32 %16, %17
  %19 = load i32, i32* %4, align 4
  %20 = add nsw i32 %18, %19
  %21 = load i32, i32* %3, align 4
  %22 = sub nsw i32 %21, 1
  %23 = srem i32 %20, %22
  store i32 %23, i32* %8, align 4
  store i32 1, i32* %7, align 4
  br label %24

24:                                               ; preds = %50, %14
  %25 = load i32, i32* %8, align 4
  %26 = icmp eq i32 %25, 0
  br i1 %26, label %27, label %31

27:                                               ; preds = %24
  %28 = load i32, i32* %7, align 4
  %29 = load i32, i32* %3, align 4
  %30 = icmp slt i32 %28, %29
  br label %31

31:                                               ; preds = %27, %24
  %32 = phi i1 [ false, %24 ], [ %30, %27 ]
  br i1 %32, label %33, label %53

33:                                               ; preds = %31
  %34 = load i32, i32* %6, align 4
  %35 = load i32, i32* %3, align 4
  %36 = mul nsw i32 %34, %35
  %37 = load i32, i32* %4, align 4
  %38 = add nsw i32 %36, %37
  %39 = load i32, i32* %3, align 4
  %40 = sub nsw i32 %39, 1
  %41 = sdiv i32 %38, %40
  store i32 %41, i32* %6, align 4
  %42 = load i32, i32* %6, align 4
  %43 = load i32, i32* %3, align 4
  %44 = mul nsw i32 %42, %43
  %45 = load i32, i32* %4, align 4
  %46 = add nsw i32 %44, %45
  %47 = load i32, i32* %3, align 4
  %48 = sub nsw i32 %47, 1
  %49 = srem i32 %46, %48
  store i32 %49, i32* %8, align 4
  br label %50

50:                                               ; preds = %33
  %51 = load i32, i32* %7, align 4
  %52 = add nsw i32 %51, 1
  store i32 %52, i32* %7, align 4
  br label %24

53:                                               ; preds = %31
  br label %54

54:                                               ; preds = %53
  %55 = load i32, i32* %5, align 4
  %56 = add nsw i32 %55, 1
  store i32 %56, i32* %5, align 4
  br label %10

57:                                               ; preds = %10
  %58 = load i32, i32* %6, align 4
  %59 = load i32, i32* %3, align 4
  %60 = mul nsw i32 %58, %59
  %61 = load i32, i32* %4, align 4
  %62 = add nsw i32 %60, %61
  %63 = call i32 (i8*, ...) @printf(i8* getelementptr inbounds ([4 x i8], [4 x i8]* @.str.1, i64 0, i64 0), i32 %62)
  %64 = load i32, i32* %1, align 4
  ret i32 %64
}

declare dso_local i32 @__isoc99_scanf(i8*, ...) #1

declare dso_local i32 @printf(i8*, ...) #1


!llvm.module.flags = !{!0}
!llvm.ident = !{!1}

!0 = !{i32 1, !"wchar_size", i32 4}
!1 = !{!"clang version 10.0.0-4ubuntu1 "}
