; ModuleID = 'source-C-CXX/53/419.c'
source_filename = "source-C-CXX/53/419.c"
target datalayout = "e-m:e-p270:32:32-p271:32:32-p272:64:64-i64:64-f80:128-n8:16:32:64-S128"
target triple = "x86_64-pc-linux-gnu"

@.str = private unnamed_addr constant [5 x i8] c"%d%d\00", align 1
@.str.1 = private unnamed_addr constant [4 x i8] c"%d\0A\00", align 1

; Function Attrs: nofree nounwind sspstrong uwtable
define dso_local i32 @main() local_unnamed_addr #0 {
  %1 = alloca i32, align 4
  %2 = alloca i32, align 4
  %3 = bitcast i32* %1 to i8*
  call void @llvm.lifetime.start.p0i8(i64 4, i8* nonnull %3) #3
  %4 = bitcast i32* %2 to i8*
  call void @llvm.lifetime.start.p0i8(i64 4, i8* nonnull %4) #3
  %5 = call i32 (i8*, ...) @__isoc99_scanf(i8* getelementptr inbounds ([5 x i8], [5 x i8]* @.str, i64 0, i64 0), i32* nonnull %1, i32* nonnull %2)
  %6 = load i32, i32* %1, align 4, !tbaa !5
  %7 = load i32, i32* %2, align 4
  %8 = add nsw i32 %6, -1
  %9 = icmp sgt i32 %6, 1
  br i1 %9, label %10, label %34

10:                                               ; preds = %0, %29
  %11 = phi i32 [ %32, %29 ], [ 1, %0 ]
  %12 = mul nsw i32 %11, %6
  %13 = add nsw i32 %12, %7
  %14 = srem i32 %13, %8
  %15 = icmp eq i32 %14, 0
  br i1 %15, label %16, label %29

16:                                               ; preds = %10, %16
  %17 = phi i32 [ %22, %16 ], [ 1, %10 ]
  %18 = phi i32 [ %21, %16 ], [ %11, %10 ]
  %19 = mul nsw i32 %18, %6
  %20 = add nsw i32 %19, %7
  %21 = sdiv i32 %20, %8
  %22 = add nuw nsw i32 %17, 1
  %23 = mul nsw i32 %21, %6
  %24 = add nsw i32 %23, %7
  %25 = srem i32 %24, %8
  %26 = icmp eq i32 %25, 0
  %27 = icmp slt i32 %22, %6
  %28 = select i1 %26, i1 %27, i1 false
  br i1 %28, label %16, label %29, !llvm.loop !9

29:                                               ; preds = %16, %10
  %30 = phi i32 [ %11, %10 ], [ %21, %16 ]
  %31 = phi i32 [ 1, %10 ], [ %22, %16 ]
  %32 = add nuw nsw i32 %11, 1
  %33 = icmp slt i32 %31, %6
  br i1 %33, label %10, label %34, !llvm.loop !11

34:                                               ; preds = %29, %0
  %35 = phi i32 [ undef, %0 ], [ %30, %29 ]
  %36 = mul nsw i32 %6, %35
  %37 = add nsw i32 %7, %36
  %38 = call i32 (i8*, ...) @printf(i8* nonnull dereferenceable(1) getelementptr inbounds ([4 x i8], [4 x i8]* @.str.1, i64 0, i64 0), i32 %37)
  call void @llvm.lifetime.end.p0i8(i64 4, i8* nonnull %4) #3
  call void @llvm.lifetime.end.p0i8(i64 4, i8* nonnull %3) #3
  ret i32 0
}

; Function Attrs: argmemonly mustprogress nofree nosync nounwind willreturn
declare void @llvm.lifetime.start.p0i8(i64 immarg, i8* nocapture) #1

; Function Attrs: nofree nounwind
declare noundef i32 @__isoc99_scanf(i8* nocapture noundef readonly, ...) local_unnamed_addr #2

; Function Attrs: nofree nounwind
declare noundef i32 @printf(i8* nocapture noundef readonly, ...) local_unnamed_addr #2

; Function Attrs: argmemonly mustprogress nofree nosync nounwind willreturn
declare void @llvm.lifetime.end.p0i8(i64 immarg, i8* nocapture) #1


!llvm.module.flags = !{!0, !1, !2, !3}
!llvm.ident = !{!4}

!0 = !{i32 1, !"wchar_size", i32 4}
!1 = !{i32 7, !"PIC Level", i32 2}
!2 = !{i32 7, !"PIE Level", i32 2}
!3 = !{i32 7, !"uwtable", i32 1}
!4 = !{!"clang version 13.0.0"}
!5 = !{!6, !6, i64 0}
!6 = !{!"int", !7, i64 0}
!7 = !{!"omnipotent char", !8, i64 0}
!8 = !{!"Simple C/C++ TBAA"}
!9 = distinct !{!9, !10}
!10 = !{!"llvm.loop.mustprogress"}
!11 = distinct !{!11, !10}
